; Function Attrs: mustprogress uwtable
define hidden noundef ptr @_ZN13bool_rewriter5mk_eqEP4exprS1_(ptr nocapture noundef nonnull readonly align 8 dereferenceable(72) %this, ptr noundef %lhs, ptr noundef %rhs) local_unnamed_addr #3 align 2 {
entry:
  %0 = load ptr, ptr %this, align 8
  %call2 = tail call noundef zeroext i1 @_ZNK11ast_manager9are_equalEP4exprS1_(ptr noundef nonnull align 8 dereferenceable(976) %0, ptr noundef %lhs, ptr noundef %rhs)
  %1 = load ptr, ptr %this, align 8
  br i1 %call2, label %if.then, label %if.end

if.then:                                          ; preds = %entry
  %m_true.i = getelementptr inbounds i8, ptr %1, i64 856
  %2 = load ptr, ptr %m_true.i, align 8
  br label %return

if.end:                                           ; preds = %entry
  %call6 = tail call noundef zeroext i1 @_ZNK11ast_manager12are_distinctEP4exprS1_(ptr noundef nonnull align 8 dereferenceable(976) %1, ptr noundef %lhs, ptr noundef %rhs)
  %3 = load ptr, ptr %this, align 8
  br i1 %call6, label %if.then7, label %if.end10

if.then7:                                         ; preds = %if.end
  %m_false.i = getelementptr inbounds i8, ptr %3, i64 864
  %4 = load ptr, ptr %m_false.i, align 8
  br label %return

if.end10:                                         ; preds = %if.end
  %call2.i = tail call noundef ptr @_ZN11ast_manager6mk_appEiiP4exprS1_(ptr noundef nonnull align 8 dereferenceable(976) %3, i32 noundef 0, i32 noundef 2, ptr noundef %lhs, ptr noundef %rhs)
  br label %return

return:                                           ; preds = %if.end10, %if.then7, %if.then
  %retval.0 = phi ptr [ %2, %if.then ], [ %4, %if.then7 ], [ %call2.i, %if.end10 ]
  ret ptr %retval.0
}